; ModuleID = '24/815.c'
source_filename = "24/815.c"
target datalayout = "e-m:e-p270:32:32-p271:32:32-p272:64:64-i64:64-f80:128-n8:16:32:64-S128"
target triple = "x86_64-pc-linux-gnu"

@.str = private unnamed_addr constant [4 x i8] c"%s\0A\00", align 1

; Function Attrs: noinline nounwind uwtable
define dso_local void @main() #0 {
  %1 = alloca i32, align 4
  %2 = alloca i32, align 4
  %3 = alloca i32, align 4
  %4 = alloca i32, align 4
  %5 = alloca i32, align 4
  %6 = alloca i32, align 4
  %7 = alloca i32, align 4
  %8 = alloca i32, align 4
  %9 = alloca i32, align 4
  %10 = alloca [1000 x i32], align 16
  %11 = alloca [1000 x i8], align 16
  %12 = alloca i8*, align 8
  %13 = alloca [50 x i8*], align 16
  store i32 0, i32* %3, align 4
  store i32 0, i32* %7, align 4
  store i32 0, i32* %8, align 4
  store i32 0, i32* %9, align 4
  %14 = getelementptr inbounds [1000 x i8], [1000 x i8]* %11, i64 0, i64 0
  store i8* %14, i8** %12, align 8
  %15 = getelementptr inbounds [1000 x i8], [1000 x i8]* %11, i64 0, i64 0
  %16 = call i32 (i8*, ...) bitcast (i32 (...)* @gets to i32 (i8*, ...)*)(i8* %15)
  %17 = getelementptr inbounds [1000 x i8], [1000 x i8]* %11, i64 0, i64 0
  %18 = call i64 @strlen(i8* %17) #3
  %19 = trunc i64 %18 to i32
  store i32 %19, i32* %1, align 4
  %20 = getelementptr inbounds [1000 x i8], [1000 x i8]* %11, i64 0, i64 0
  %21 = getelementptr inbounds [50 x i8*], [50 x i8*]* %13, i64 0, i64 0
  store i8* %20, i8** %21, align 16
  store i32 0, i32* %4, align 4
  br label %22

22:                                               ; preds = %76, %0
  %23 = load i32, i32* %4, align 4
  %24 = load i32, i32* %1, align 4
  %25 = icmp sle i32 %23, %24
  br i1 %25, label %26, label %79

26:                                               ; preds = %22
  %27 = load i32, i32* %4, align 4
  %28 = sext i32 %27 to i64
  %29 = getelementptr inbounds [1000 x i8], [1000 x i8]* %11, i64 0, i64 %28
  %30 = load i8, i8* %29, align 1
  %31 = sext i8 %30 to i32
  %32 = icmp ne i32 %31, 32
  br i1 %32, label %33, label %43

33:                                               ; preds = %26
  %34 = load i32, i32* %4, align 4
  %35 = sext i32 %34 to i64
  %36 = getelementptr inbounds [1000 x i8], [1000 x i8]* %11, i64 0, i64 %35
  %37 = load i8, i8* %36, align 1
  %38 = sext i8 %37 to i32
  %39 = icmp ne i32 %38, 0
  br i1 %39, label %40, label %43

40:                                               ; preds = %33
  %41 = load i32, i32* %3, align 4
  %42 = add nsw i32 %41, 1
  store i32 %42, i32* %3, align 4
  br label %43

43:                                               ; preds = %40, %33, %26
  %44 = load i32, i32* %4, align 4
  %45 = sext i32 %44 to i64
  %46 = getelementptr inbounds [1000 x i8], [1000 x i8]* %11, i64 0, i64 %45
  %47 = load i8, i8* %46, align 1
  %48 = sext i8 %47 to i32
  %49 = icmp eq i32 %48, 32
  br i1 %49, label %57, label %50

50:                                               ; preds = %43
  %51 = load i32, i32* %4, align 4
  %52 = sext i32 %51 to i64
  %53 = getelementptr inbounds [1000 x i8], [1000 x i8]* %11, i64 0, i64 %52
  %54 = load i8, i8* %53, align 1
  %55 = sext i8 %54 to i32
  %56 = icmp eq i32 %55, 0
  br i1 %56, label %57, label %75

57:                                               ; preds = %50, %43
  %58 = load i32, i32* %4, align 4
  %59 = sext i32 %58 to i64
  %60 = getelementptr inbounds [1000 x i8], [1000 x i8]* %11, i64 0, i64 %59
  store i8 0, i8* %60, align 1
  %61 = load i32, i32* %3, align 4
  %62 = load i32, i32* %7, align 4
  %63 = sext i32 %62 to i64
  %64 = getelementptr inbounds [1000 x i32], [1000 x i32]* %10, i64 0, i64 %63
  store i32 %61, i32* %64, align 4
  %65 = load i32, i32* %4, align 4
  %66 = add nsw i32 %65, 1
  %67 = sext i32 %66 to i64
  %68 = getelementptr inbounds [1000 x i8], [1000 x i8]* %11, i64 0, i64 %67
  %69 = load i32, i32* %7, align 4
  %70 = add nsw i32 %69, 1
  %71 = sext i32 %70 to i64
  %72 = getelementptr inbounds [50 x i8*], [50 x i8*]* %13, i64 0, i64 %71
  store i8* %68, i8** %72, align 8
  store i32 0, i32* %3, align 4
  %73 = load i32, i32* %7, align 4
  %74 = add nsw i32 %73, 1
  store i32 %74, i32* %7, align 4
  br label %75

75:                                               ; preds = %57, %50
  br label %76

76:                                               ; preds = %75
  %77 = load i32, i32* %4, align 4
  %78 = add nsw i32 %77, 1
  store i32 %78, i32* %4, align 4
  br label %22

79:                                               ; preds = %22
  %80 = getelementptr inbounds [1000 x i32], [1000 x i32]* %10, i64 0, i64 0
  %81 = load i32, i32* %80, align 16
  store i32 %81, i32* %5, align 4
  %82 = getelementptr inbounds [1000 x i32], [1000 x i32]* %10, i64 0, i64 0
  %83 = load i32, i32* %82, align 16
  store i32 %83, i32* %6, align 4
  store i32 1, i32* %2, align 4
  br label %84

84:                                               ; preds = %115, %79
  %85 = load i32, i32* %2, align 4
  %86 = load i32, i32* %7, align 4
  %87 = icmp slt i32 %85, %86
  br i1 %87, label %88, label %118

88:                                               ; preds = %84
  %89 = load i32, i32* %2, align 4
  %90 = sext i32 %89 to i64
  %91 = getelementptr inbounds [1000 x i32], [1000 x i32]* %10, i64 0, i64 %90
  %92 = load i32, i32* %91, align 4
  %93 = load i32, i32* %5, align 4
  %94 = icmp sgt i32 %92, %93
  br i1 %94, label %95, label %101

95:                                               ; preds = %88
  %96 = load i32, i32* %2, align 4
  %97 = sext i32 %96 to i64
  %98 = getelementptr inbounds [1000 x i32], [1000 x i32]* %10, i64 0, i64 %97
  %99 = load i32, i32* %98, align 4
  store i32 %99, i32* %5, align 4
  %100 = load i32, i32* %2, align 4
  store i32 %100, i32* %8, align 4
  br label %101

101:                                              ; preds = %95, %88
  %102 = load i32, i32* %2, align 4
  %103 = sext i32 %102 to i64
  %104 = getelementptr inbounds [1000 x i32], [1000 x i32]* %10, i64 0, i64 %103
  %105 = load i32, i32* %104, align 4
  %106 = load i32, i32* %6, align 4
  %107 = icmp slt i32 %105, %106
  br i1 %107, label %108, label %114

108:                                              ; preds = %101
  %109 = load i32, i32* %2, align 4
  %110 = sext i32 %109 to i64
  %111 = getelementptr inbounds [1000 x i32], [1000 x i32]* %10, i64 0, i64 %110
  %112 = load i32, i32* %111, align 4
  store i32 %112, i32* %6, align 4
  %113 = load i32, i32* %2, align 4
  store i32 %113, i32* %9, align 4
  br label %114

114:                                              ; preds = %108, %101
  br label %115

115:                                              ; preds = %114
  %116 = load i32, i32* %2, align 4
  %117 = add nsw i32 %116, 1
  store i32 %117, i32* %2, align 4
  br label %84

118:                                              ; preds = %84
  %119 = load i32, i32* %8, align 4
  %120 = sext i32 %119 to i64
  %121 = getelementptr inbounds [50 x i8*], [50 x i8*]* %13, i64 0, i64 %120
  %122 = load i8*, i8** %121, align 8
  %123 = call i32 (i8*, ...) @printf(i8* getelementptr inbounds ([4 x i8], [4 x i8]* @.str, i64 0, i64 0), i8* %122)
  %124 = load i32, i32* %9, align 4
  %125 = sext i32 %124 to i64
  %126 = getelementptr inbounds [50 x i8*], [50 x i8*]* %13, i64 0, i64 %125
  %127 = load i8*, i8** %126, align 8
  %128 = call i32 (i8*, ...) @printf(i8* getelementptr inbounds ([4 x i8], [4 x i8]* @.str, i64 0, i64 0), i8* %127)
  ret void
}

declare dso_local i32 @gets(...) #1

; Function Attrs: nounwind readonly
declare dso_local i64 @strlen(i8*) #2

declare dso_local i32 @printf(i8*, ...) #1


!llvm.module.flags = !{!0}
!llvm.ident = !{!1}

!0 = !{i32 1, !"wchar_size", i32 4}
!1 = !{!"clang version 10.0.0-4ubuntu1 "}
